; ModuleID = '26/421.c'
source_filename = "26/421.c"
target datalayout = "e-m:e-p270:32:32-p271:32:32-p272:64:64-i64:64-f80:128-n8:16:32:64-S128"
target triple = "x86_64-pc-linux-gnu"

@.str = private unnamed_addr constant [3 x i8] c"%s\00", align 1

; Function Attrs: noinline nounwind uwtable
define dso_local i32 @main() #0 {
  %1 = alloca i32, align 4
  %2 = alloca i32, align 4
  %3 = alloca i32, align 4
  %4 = alloca i32, align 4
  %5 = alloca [120 x i8], align 16
  store i32 0, i32* %1, align 4
  %6 = getelementptr inbounds [120 x i8], [120 x i8]* %5, i64 0, i64 0
  %7 = call i32 (i8*, ...) bitcast (i32 (...)* @gets to i32 (i8*, ...)*)(i8* %6)
  store i32 0, i32* %2, align 4
  br label %8

8:                                                ; preds = %114, %0
  %9 = load i32, i32* %2, align 4
  %10 = sext i32 %9 to i64
  %11 = getelementptr inbounds [120 x i8], [120 x i8]* %5, i64 0, i64 %10
  %12 = load i8, i8* %11, align 1
  %13 = sext i8 %12 to i32
  %14 = icmp ne i32 %13, 0
  br i1 %14, label %15, label %117

15:                                               ; preds = %8
  %16 = load i32, i32* %2, align 4
  %17 = sext i32 %16 to i64
  %18 = getelementptr inbounds [120 x i8], [120 x i8]* %5, i64 0, i64 %17
  %19 = load i8, i8* %18, align 1
  %20 = sext i8 %19 to i32
  %21 = icmp eq i32 %20, 32
  br i1 %21, label %22, label %113

22:                                               ; preds = %15
  %23 = load i32, i32* %2, align 4
  %24 = add nsw i32 %23, 1
  %25 = sext i32 %24 to i64
  %26 = getelementptr inbounds [120 x i8], [120 x i8]* %5, i64 0, i64 %25
  %27 = load i8, i8* %26, align 1
  %28 = sext i8 %27 to i32
  %29 = icmp eq i32 %28, 32
  br i1 %29, label %30, label %113

30:                                               ; preds = %22
  %31 = load i32, i32* %2, align 4
  %32 = add nsw i32 %31, 1
  store i32 %32, i32* %3, align 4
  br label %33

33:                                               ; preds = %41, %30
  %34 = load i32, i32* %3, align 4
  %35 = sext i32 %34 to i64
  %36 = getelementptr inbounds [120 x i8], [120 x i8]* %5, i64 0, i64 %35
  %37 = load i8, i8* %36, align 1
  %38 = sext i8 %37 to i32
  %39 = icmp eq i32 %38, 32
  br i1 %39, label %40, label %44

40:                                               ; preds = %33
  br label %41

41:                                               ; preds = %40
  %42 = load i32, i32* %3, align 4
  %43 = add nsw i32 %42, 1
  store i32 %43, i32* %3, align 4
  br label %33

44:                                               ; preds = %33
  store i32 1, i32* %4, align 4
  br label %45

45:                                               ; preds = %86, %44
  %46 = load i32, i32* %3, align 4
  %47 = load i32, i32* %4, align 4
  %48 = add nsw i32 %46, %47
  %49 = sub nsw i32 %48, 1
  %50 = sext i32 %49 to i64
  %51 = getelementptr inbounds [120 x i8], [120 x i8]* %5, i64 0, i64 %50
  %52 = load i8, i8* %51, align 1
  %53 = sext i8 %52 to i32
  %54 = icmp ne i32 %53, 32
  br i1 %54, label %55, label %65

55:                                               ; preds = %45
  %56 = load i32, i32* %3, align 4
  %57 = load i32, i32* %4, align 4
  %58 = add nsw i32 %56, %57
  %59 = sub nsw i32 %58, 1
  %60 = sext i32 %59 to i64
  %61 = getelementptr inbounds [120 x i8], [120 x i8]* %5, i64 0, i64 %60
  %62 = load i8, i8* %61, align 1
  %63 = sext i8 %62 to i32
  %64 = icmp ne i32 %63, 0
  br label %65

65:                                               ; preds = %55, %45
  %66 = phi i1 [ false, %45 ], [ %64, %55 ]
  br i1 %66, label %67, label %89

67:                                               ; preds = %65
  %68 = load i32, i32* %3, align 4
  %69 = load i32, i32* %4, align 4
  %70 = add nsw i32 %68, %69
  %71 = sub nsw i32 %70, 1
  %72 = sext i32 %71 to i64
  %73 = getelementptr inbounds [120 x i8], [120 x i8]* %5, i64 0, i64 %72
  %74 = load i8, i8* %73, align 1
  %75 = load i32, i32* %2, align 4
  %76 = load i32, i32* %4, align 4
  %77 = add nsw i32 %75, %76
  %78 = sext i32 %77 to i64
  %79 = getelementptr inbounds [120 x i8], [120 x i8]* %5, i64 0, i64 %78
  store i8 %74, i8* %79, align 1
  %80 = load i32, i32* %3, align 4
  %81 = load i32, i32* %4, align 4
  %82 = add nsw i32 %80, %81
  %83 = sub nsw i32 %82, 1
  %84 = sext i32 %83 to i64
  %85 = getelementptr inbounds [120 x i8], [120 x i8]* %5, i64 0, i64 %84
  store i8 32, i8* %85, align 1
  br label %86

86:                                               ; preds = %67
  %87 = load i32, i32* %4, align 4
  %88 = add nsw i32 %87, 1
  store i32 %88, i32* %4, align 4
  br label %45

89:                                               ; preds = %65
  %90 = load i32, i32* %3, align 4
  %91 = load i32, i32* %4, align 4
  %92 = add nsw i32 %90, %91
  %93 = sub nsw i32 %92, 1
  %94 = sext i32 %93 to i64
  %95 = getelementptr inbounds [120 x i8], [120 x i8]* %5, i64 0, i64 %94
  %96 = load i8, i8* %95, align 1
  %97 = sext i8 %96 to i32
  %98 = icmp eq i32 %97, 0
  br i1 %98, label %99, label %112

99:                                               ; preds = %89
  %100 = load i32, i32* %3, align 4
  %101 = load i32, i32* %4, align 4
  %102 = add nsw i32 %100, %101
  %103 = sub nsw i32 %102, 1
  %104 = sext i32 %103 to i64
  %105 = getelementptr inbounds [120 x i8], [120 x i8]* %5, i64 0, i64 %104
  %106 = load i8, i8* %105, align 1
  %107 = load i32, i32* %2, align 4
  %108 = load i32, i32* %4, align 4
  %109 = add nsw i32 %107, %108
  %110 = sext i32 %109 to i64
  %111 = getelementptr inbounds [120 x i8], [120 x i8]* %5, i64 0, i64 %110
  store i8 %106, i8* %111, align 1
  br label %112

112:                                              ; preds = %99, %89
  br label %113

113:                                              ; preds = %112, %22, %15
  br label %114

114:                                              ; preds = %113
  %115 = load i32, i32* %2, align 4
  %116 = add nsw i32 %115, 1
  store i32 %116, i32* %2, align 4
  br label %8

117:                                              ; preds = %8
  %118 = getelementptr inbounds [120 x i8], [120 x i8]* %5, i64 0, i64 0
  %119 = call i32 (i8*, ...) @printf(i8* getelementptr inbounds ([3 x i8], [3 x i8]* @.str, i64 0, i64 0), i8* %118)
  %120 = call i32 @getchar()
  %121 = load i32, i32* %1, align 4
  ret i32 %121
}

declare dso_local i32 @gets(...) #1

declare dso_local i32 @printf(i8*, ...) #1

declare dso_local i32 @getchar() #1


!llvm.module.flags = !{!0}
!llvm.ident = !{!1}

!0 = !{i32 1, !"wchar_size", i32 4}
!1 = !{!"clang version 10.0.0-4ubuntu1 "}
